target datalayout = "e-m:e-p270:32:32-p271:32:32-p272:64:64-i64:64-i128:128-f80:128-n8:16:32:64-S128"
target triple = "x86_64-unknown-linux-gnu"

%"class.node::SocketAddress" = type { %"class.node::MemoryRetainer", %struct.sockaddr_storage }
%"class.node::MemoryRetainer" = type { ptr }
%struct.sockaddr_storage = type { i16, [118 x i8], i64 }
%struct.sockaddr_in = type { i16, i16, %struct.in_addr, [8 x i8] }
%struct.in_addr = type { i32 }
%struct.sockaddr_in6 = type { i16, i16, i32, %struct.in6_addr, i32 }
%struct.in6_addr = type { %union.anon }
%union.anon = type { [4 x i32] }

@_ZN4node12_GLOBAL__N_14maskE = internal constant [12 x i8] c"\00\00\00\00\00\00\00\00\00\00\FF\FF", align 1

; Function Attrs: mustprogress nounwind uwtable
define linkonce_odr dso_local noundef ptr @_ZNK4node13SocketAddress4dataEv(ptr noundef nonnull align 8 dereferenceable(136) %this) #4 comdat align 2 {
entry:
  %this.addr = alloca ptr, align 8
  store ptr %this, ptr %this.addr, align 8
  %this1 = load ptr, ptr %this.addr, align 8
  %address_ = getelementptr inbounds %"class.node::SocketAddress", ptr %this1, i32 0, i32 1
  ret ptr %address_
}

; Function Attrs: mustprogress nounwind uwtable
define internal noundef zeroext i1 @_ZN4node12_GLOBAL__N_113is_match_ipv6ERKNS_13SocketAddressES3_(ptr noundef nonnull align 8 dereferenceable(136) %one, ptr noundef nonnull align 8 dereferenceable(136) %two) #4 {
entry:
  %one.addr = alloca ptr, align 8
  %two.addr = alloca ptr, align 8
  %one_in = alloca ptr, align 8
  %two_in = alloca ptr, align 8
  store ptr %one, ptr %one.addr, align 8
  store ptr %two, ptr %two.addr, align 8
  %0 = load ptr, ptr %one.addr, align 8
  %call = call noundef ptr @_ZNK4node13SocketAddress4dataEv(ptr noundef nonnull align 8 dereferenceable(136) %0)
  store ptr %call, ptr %one_in, align 8
  %1 = load ptr, ptr %two.addr, align 8
  %call1 = call noundef ptr @_ZNK4node13SocketAddress4dataEv(ptr noundef nonnull align 8 dereferenceable(136) %1)
  store ptr %call1, ptr %two_in, align 8
  %2 = load ptr, ptr %one_in, align 8
  %sin6_addr = getelementptr inbounds %struct.sockaddr_in6, ptr %2, i32 0, i32 3
  %3 = load ptr, ptr %two_in, align 8
  %sin6_addr2 = getelementptr inbounds %struct.sockaddr_in6, ptr %3, i32 0, i32 3
  %call3 = call i32 @memcmp(ptr noundef %sin6_addr, ptr noundef %sin6_addr2, i64 noundef 16) #16
  %cmp = icmp eq i32 %call3, 0
  ret i1 %cmp
}

; Function Attrs: mustprogress nounwind uwtable
define internal noundef zeroext i1 @_ZN4node12_GLOBAL__N_118is_match_ipv4_ipv6ERKNS_13SocketAddressES3_(ptr noundef nonnull align 8 dereferenceable(136) %ipv4, ptr noundef nonnull align 8 dereferenceable(136) %ipv6) #4 {
entry:
  %ipv4.addr = alloca ptr, align 8
  %ipv6.addr = alloca ptr, align 8
  %check_ipv4 = alloca ptr, align 8
  %check_ipv6 = alloca ptr, align 8
  %ptr = alloca ptr, align 8
  store ptr %ipv4, ptr %ipv4.addr, align 8
  store ptr %ipv6, ptr %ipv6.addr, align 8
  %0 = load ptr, ptr %ipv4.addr, align 8
  %call = call noundef ptr @_ZNK4node13SocketAddress4dataEv(ptr noundef nonnull align 8 dereferenceable(136) %0)
  store ptr %call, ptr %check_ipv4, align 8
  %1 = load ptr, ptr %ipv6.addr, align 8
  %call1 = call noundef ptr @_ZNK4node13SocketAddress4dataEv(ptr noundef nonnull align 8 dereferenceable(136) %1)
  store ptr %call1, ptr %check_ipv6, align 8
  %2 = load ptr, ptr %check_ipv6, align 8
  %sin6_addr = getelementptr inbounds %struct.sockaddr_in6, ptr %2, i32 0, i32 3
  store ptr %sin6_addr, ptr %ptr, align 8
  %3 = load ptr, ptr %ptr, align 8
  %call2 = call i32 @memcmp(ptr noundef %3, ptr noundef @_ZN4node12_GLOBAL__N_14maskE, i64 noundef 12) #16
  %cmp = icmp eq i32 %call2, 0
  br i1 %cmp, label %land.rhs, label %land.end

land.rhs:                                         ; preds = %entry
  %4 = load ptr, ptr %ptr, align 8
  %add.ptr = getelementptr inbounds i8, ptr %4, i64 12
  %5 = load ptr, ptr %check_ipv4, align 8
  %sin_addr = getelementptr inbounds %struct.sockaddr_in, ptr %5, i32 0, i32 2
  %call3 = call i32 @memcmp(ptr noundef %add.ptr, ptr noundef %sin_addr, i64 noundef 4) #16
  %cmp4 = icmp eq i32 %call3, 0
  br label %land.end

land.end:                                         ; preds = %land.rhs, %entry
  %6 = phi i1 [ false, %entry ], [ %cmp4, %land.rhs ]
  ret i1 %6
}

; Function Attrs: mustprogress nounwind uwtable
define internal noundef zeroext i1 @_ZN4node12_GLOBAL__N_113is_match_ipv4ERKNS_13SocketAddressES3_(ptr noundef nonnull align 8 dereferenceable(136) %one, ptr noundef nonnull align 8 dereferenceable(136) %two) #4 {
entry:
  %one.addr = alloca ptr, align 8
  %two.addr = alloca ptr, align 8
  %one_in = alloca ptr, align 8
  %two_in = alloca ptr, align 8
  store ptr %one, ptr %one.addr, align 8
  store ptr %two, ptr %two.addr, align 8
  %0 = load ptr, ptr %one.addr, align 8
  %call = call noundef ptr @_ZNK4node13SocketAddress4dataEv(ptr noundef nonnull align 8 dereferenceable(136) %0)
  store ptr %call, ptr %one_in, align 8
  %1 = load ptr, ptr %two.addr, align 8
  %call1 = call noundef ptr @_ZNK4node13SocketAddress4dataEv(ptr noundef nonnull align 8 dereferenceable(136) %1)
  store ptr %call1, ptr %two_in, align 8
  %2 = load ptr, ptr %one_in, align 8
  %sin_addr = getelementptr inbounds %struct.sockaddr_in, ptr %2, i32 0, i32 2
  %3 = load ptr, ptr %two_in, align 8
  %sin_addr2 = getelementptr inbounds %struct.sockaddr_in, ptr %3, i32 0, i32 2
  %call3 = call i32 @memcmp(ptr noundef %sin_addr, ptr noundef %sin_addr2, i64 noundef 4) #16
  %cmp = icmp eq i32 %call3, 0
  ret i1 %cmp
}

; Function Attrs: mustprogress nounwind uwtable
define linkonce_odr dso_local noundef i32 @_ZNK4node13SocketAddress6familyEv(ptr noundef nonnull align 8 dereferenceable(136) %this) #4 comdat align 2 {
entry:
  %this.addr = alloca ptr, align 8
  store ptr %this, ptr %this.addr, align 8
  %this1 = load ptr, ptr %this.addr, align 8
  %address_ = getelementptr inbounds %"class.node::SocketAddress", ptr %this1, i32 0, i32 1
  %ss_family = getelementptr inbounds %struct.sockaddr_storage, ptr %address_, i32 0, i32 0
  %0 = load i16, ptr %ss_family, align 8
  %conv = zext i16 %0 to i32
  ret i32 %conv
}

; Function Attrs: mustprogress nounwind uwtable
define dso_local noundef zeroext i1 @_ZNK4node13SocketAddress8is_matchERKS0_(ptr noundef nonnull align 8 dereferenceable(136) %this, ptr noundef nonnull align 8 dereferenceable(136) %other) #4 align 2 {
entry:
  %retval = alloca i1, align 1
  %this.addr = alloca ptr, align 8
  %other.addr = alloca ptr, align 8
  store ptr %this, ptr %this.addr, align 8
  store ptr %other, ptr %other.addr, align 8
  %this1 = load ptr, ptr %this.addr, align 8
  %call = call noundef i32 @_ZNK4node13SocketAddress6familyEv(ptr noundef nonnull align 8 dereferenceable(136) %this1)
  switch i32 %call, label %sw.epilog14 [
    i32 2, label %sw.bb
    i32 10, label %sw.bb7
  ]

sw.bb:                                            ; preds = %entry
  %0 = load ptr, ptr %other.addr, align 8
  %call2 = call noundef i32 @_ZNK4node13SocketAddress6familyEv(ptr noundef nonnull align 8 dereferenceable(136) %0)
  switch i32 %call2, label %sw.epilog [
    i32 2, label %sw.bb3
    i32 10, label %sw.bb5
  ]

sw.bb3:                                           ; preds = %sw.bb
  %1 = load ptr, ptr %other.addr, align 8
  %call4 = call noundef zeroext i1 @_ZN4node12_GLOBAL__N_113is_match_ipv4ERKNS_13SocketAddressES3_(ptr noundef nonnull align 8 dereferenceable(136) %this1, ptr noundef nonnull align 8 dereferenceable(136) %1)
  store i1 %call4, ptr %retval, align 1
  br label %return

sw.bb5:                                           ; preds = %sw.bb
  %2 = load ptr, ptr %other.addr, align 8
  %call6 = call noundef zeroext i1 @_ZN4node12_GLOBAL__N_118is_match_ipv4_ipv6ERKNS_13SocketAddressES3_(ptr noundef nonnull align 8 dereferenceable(136) %this1, ptr noundef nonnull align 8 dereferenceable(136) %2)
  store i1 %call6, ptr %retval, align 1
  br label %return

sw.epilog:                                        ; preds = %sw.bb
  br label %sw.epilog14

sw.bb7:                                           ; preds = %entry
  %3 = load ptr, ptr %other.addr, align 8
  %call8 = call noundef i32 @_ZNK4node13SocketAddress6familyEv(ptr noundef nonnull align 8 dereferenceable(136) %3)
  switch i32 %call8, label %sw.epilog13 [
    i32 2, label %sw.bb9
    i32 10, label %sw.bb11
  ]

sw.bb9:                                           ; preds = %sw.bb7
  %4 = load ptr, ptr %other.addr, align 8
  %call10 = call noundef zeroext i1 @_ZN4node12_GLOBAL__N_118is_match_ipv4_ipv6ERKNS_13SocketAddressES3_(ptr noundef nonnull align 8 dereferenceable(136) %4, ptr noundef nonnull align 8 dereferenceable(136) %this1)
  store i1 %call10, ptr %retval, align 1
  br label %return

sw.bb11:                                          ; preds = %sw.bb7
  %5 = load ptr, ptr %other.addr, align 8
  %call12 = call noundef zeroext i1 @_ZN4node12_GLOBAL__N_113is_match_ipv6ERKNS_13SocketAddressES3_(ptr noundef nonnull align 8 dereferenceable(136) %this1, ptr noundef nonnull align 8 dereferenceable(136) %5)
  store i1 %call12, ptr %retval, align 1
  br label %return

sw.epilog13:                                      ; preds = %sw.bb7
  br label %sw.epilog14

sw.epilog14:                                      ; preds = %sw.epilog13, %sw.epilog, %entry
  store i1 false, ptr %retval, align 1
  br label %return

return:                                           ; preds = %sw.epilog14, %sw.bb11, %sw.bb9, %sw.bb5, %sw.bb3
  %6 = load i1, ptr %retval, align 1
  ret i1 %6
}