; Function Attrs: mustprogress nofree nounwind willreturn memory(argmem: read) uwtable
define dso_local noundef zeroext i1 @_ZNK4node13SocketAddress8is_matchERKS0_(ptr nocapture noundef nonnull readonly align 8 dereferenceable(136) %this, ptr nocapture noundef nonnull readonly align 8 dereferenceable(136) %other) local_unnamed_addr #5 align 2 {
entry:
  %address_.i = getelementptr inbounds i8, ptr %this, i64 8
  %0 = load i16, ptr %address_.i, align 8
  switch i16 %0, label %return [
    i16 2, label %sw.bb
    i16 10, label %sw.bb7
  ]

sw.bb:                                            ; preds = %entry
  %address_.i6 = getelementptr inbounds i8, ptr %other, i64 8
  %1 = load i16, ptr %address_.i6, align 8
  switch i16 %1, label %return [
    i16 2, label %sw.bb3
    i16 10, label %sw.bb5
  ]

sw.bb3:                                           ; preds = %sw.bb
  %sin_addr.i = getelementptr inbounds i8, ptr %this, i64 12
  %sin_addr2.i = getelementptr inbounds i8, ptr %other, i64 12
  %lhsv.i = load i32, ptr %sin_addr.i, align 4
  %rhsv.i = load i32, ptr %sin_addr2.i, align 4
  %.not.i = icmp eq i32 %lhsv.i, %rhsv.i
  br label %return

sw.bb5:                                           ; preds = %sw.bb
  %sin6_addr.i = getelementptr inbounds i8, ptr %other, i64 16
  %bcmp.i = tail call i32 @bcmp(ptr noundef nonnull dereferenceable(12) %sin6_addr.i, ptr noundef nonnull dereferenceable(12) @_ZN4node12_GLOBAL__N_14maskE, i64 12)
  %cmp.i = icmp eq i32 %bcmp.i, 0
  %add.ptr.i = getelementptr inbounds i8, ptr %other, i64 28
  %sin_addr.i8 = getelementptr inbounds i8, ptr %this, i64 12
  %lhsv.i9 = load i32, ptr %add.ptr.i, align 4
  %rhsv.i10 = load i32, ptr %sin_addr.i8, align 4
  %.not.i11 = icmp eq i32 %lhsv.i9, %rhsv.i10
  %2 = select i1 %cmp.i, i1 %.not.i11, i1 false
  br label %return

sw.bb7:                                           ; preds = %entry
  %address_.i12 = getelementptr inbounds i8, ptr %other, i64 8
  %3 = load i16, ptr %address_.i12, align 8
  switch i16 %3, label %return [
    i16 2, label %sw.bb9
    i16 10, label %sw.bb11
  ]

sw.bb9:                                           ; preds = %sw.bb7
  %sin6_addr.i14 = getelementptr inbounds i8, ptr %this, i64 16
  %bcmp.i15 = tail call i32 @bcmp(ptr noundef nonnull dereferenceable(12) %sin6_addr.i14, ptr noundef nonnull dereferenceable(12) @_ZN4node12_GLOBAL__N_14maskE, i64 12)
  %cmp.i16 = icmp eq i32 %bcmp.i15, 0
  %add.ptr.i17 = getelementptr inbounds i8, ptr %this, i64 28
  %sin_addr.i18 = getelementptr inbounds i8, ptr %other, i64 12
  %lhsv.i19 = load i32, ptr %add.ptr.i17, align 4
  %rhsv.i20 = load i32, ptr %sin_addr.i18, align 4
  %.not.i21 = icmp eq i32 %lhsv.i19, %rhsv.i20
  %4 = select i1 %cmp.i16, i1 %.not.i21, i1 false
  br label %return

sw.bb11:                                          ; preds = %sw.bb7
  %sin6_addr.i22 = getelementptr inbounds i8, ptr %this, i64 16
  %sin6_addr2.i = getelementptr inbounds i8, ptr %other, i64 16
  %bcmp.i23 = tail call i32 @bcmp(ptr noundef nonnull dereferenceable(16) %sin6_addr.i22, ptr noundef nonnull dereferenceable(16) %sin6_addr2.i, i64 16)
  %cmp.i24 = icmp eq i32 %bcmp.i23, 0
  br label %return

return:                                           ; preds = %entry, %sw.bb, %sw.bb7, %sw.bb11, %sw.bb9, %sw.bb5, %sw.bb3
  %retval.0 = phi i1 [ %cmp.i24, %sw.bb11 ], [ %4, %sw.bb9 ], [ %2, %sw.bb5 ], [ %.not.i, %sw.bb3 ], [ false, %sw.bb7 ], [ false, %sw.bb ], [ false, %entry ]
  ret i1 %retval.0
}